target datalayout = "e-m:e-p270:32:32-p271:32:32-p272:64:64-i64:64-i128:128-f80:128-n8:16:32:64-S128"
target triple = "x86_64-pc-linux-gnu"

%"class.casadi::Einstein" = type { %"class.casadi::MXNode", %"class.std::vector.0", %"class.std::vector.0", %"class.std::vector.0", %"class.std::vector.0", %"class.std::vector.0", %"class.std::vector.0", %"class.std::vector.0", %"class.std::vector.0", %"class.std::vector.0", %"class.std::vector.0", i64 }
%"class.casadi::MXNode" = type { %"class.casadi::SharedObjectInternal", i64, %"class.std::vector", %"class.casadi::Sparsity" }
%"class.casadi::SharedObjectInternal" = type { %"class.casadi::GenericSharedInternal", i64 }
%"class.casadi::GenericSharedInternal" = type { ptr, ptr }
%"class.std::vector" = type { %"struct.std::_Vector_base" }
%"struct.std::_Vector_base" = type { %"struct.std::_Vector_base<casadi::MX, std::allocator<casadi::MX>>::_Vector_impl" }
%"struct.std::_Vector_base<casadi::MX, std::allocator<casadi::MX>>::_Vector_impl" = type { %"struct.std::_Vector_base<casadi::MX, std::allocator<casadi::MX>>::_Vector_impl_data" }
%"struct.std::_Vector_base<casadi::MX, std::allocator<casadi::MX>>::_Vector_impl_data" = type { ptr, ptr, ptr }
%"class.casadi::Sparsity" = type { %"class.casadi::SharedObject" }
%"class.casadi::SharedObject" = type { %"class.casadi::GenericShared" }
%"class.casadi::GenericShared" = type { ptr }
%"class.std::vector.0" = type { %"struct.std::_Vector_base.1" }
%"struct.std::_Vector_base.1" = type { %"struct.std::_Vector_base<long long, std::allocator<long long>>::_Vector_impl" }
%"struct.std::_Vector_base<long long, std::allocator<long long>>::_Vector_impl" = type { %"struct.std::_Vector_base<long long, std::allocator<long long>>::_Vector_impl_data" }
%"struct.std::_Vector_base<long long, std::allocator<long long>>::_Vector_impl_data" = type { ptr, ptr, ptr }

; Function Attrs: mustprogress uwtable
define linkonce_odr hidden noundef i64 @_ZNK6casadi6MXNode3nnzEx(ptr noundef nonnull align 8 dereferenceable(64) %0, i64 noundef %1) #4 comdat align 2 {
  %3 = alloca ptr, align 8
  %4 = alloca i64, align 8
  store ptr %0, ptr %3, align 8, !tbaa !83
  store i64 %1, ptr %4, align 8, !tbaa !36
  %5 = load ptr, ptr %3, align 8
  %6 = load i64, ptr %4, align 8, !tbaa !36
  %7 = load ptr, ptr %5, align 8, !tbaa !12
  %8 = getelementptr inbounds ptr, ptr %7, i64 49
  %9 = load ptr, ptr %8, align 8
  %10 = call noundef nonnull align 8 dereferenceable(8) ptr %9(ptr noundef nonnull align 8 dereferenceable(64) %5, i64 noundef %6)
  %11 = call noundef i64 @_ZNK6casadi8Sparsity3nnzEv(ptr noundef nonnull align 8 dereferenceable(8) %10)
  ret i64 %11
}

; Function Attrs: inlinehint mustprogress nounwind uwtable
define linkonce_odr hidden void @_ZN6casadi11ContractionIyEEvRKT_S3_RS1_(ptr noundef nonnull align 8 dereferenceable(8) %0, ptr noundef nonnull align 8 dereferenceable(8) %1, ptr noundef nonnull align 8 dereferenceable(8) %2) #8 comdat {
  %4 = alloca ptr, align 8
  %5 = alloca ptr, align 8
  %6 = alloca ptr, align 8
  store ptr %0, ptr %4, align 8, !tbaa !67
  store ptr %1, ptr %5, align 8, !tbaa !67
  store ptr %2, ptr %6, align 8, !tbaa !67
  %7 = load ptr, ptr %4, align 8, !tbaa !67
  %8 = load i64, ptr %7, align 8, !tbaa !36
  %9 = load ptr, ptr %5, align 8, !tbaa !67
  %10 = load i64, ptr %9, align 8, !tbaa !36
  %11 = or i64 %8, %10
  %12 = load ptr, ptr %6, align 8, !tbaa !67
  %13 = load i64, ptr %12, align 8, !tbaa !36
  %14 = or i64 %13, %11
  store i64 %14, ptr %12, align 8, !tbaa !36
  ret void
}

; Function Attrs: mustprogress nounwind uwtable
define linkonce_odr hidden noundef i64 @_ZNKSt6vectorIxSaIxEE4sizeEv(ptr noundef nonnull align 8 dereferenceable(24) %0) #5 comdat align 2 {
  %2 = alloca ptr, align 8
  store ptr %0, ptr %2, align 8, !tbaa !10
  %3 = load ptr, ptr %2, align 8
  %4 = getelementptr inbounds nuw %"struct.std::_Vector_base.1", ptr %3, i32 0, i32 0
  %5 = getelementptr inbounds nuw %"struct.std::_Vector_base<long long, std::allocator<long long>>::_Vector_impl_data", ptr %4, i32 0, i32 1
  %6 = load ptr, ptr %5, align 8, !tbaa !35
  %7 = getelementptr inbounds nuw %"struct.std::_Vector_base.1", ptr %3, i32 0, i32 0
  %8 = getelementptr inbounds nuw %"struct.std::_Vector_base<long long, std::allocator<long long>>::_Vector_impl_data", ptr %7, i32 0, i32 0
  %9 = load ptr, ptr %8, align 8, !tbaa !34
  %10 = ptrtoint ptr %6 to i64
  %11 = ptrtoint ptr %9 to i64
  %12 = sub i64 %10, %11
  %13 = sdiv exact i64 %12, 8
  ret i64 %13
}

; Function Attrs: mustprogress nounwind uwtable
define linkonce_odr hidden noundef nonnull align 8 dereferenceable(8) ptr @_ZNKSt6vectorIxSaIxEEixEm(ptr noundef nonnull align 8 dereferenceable(24) %0, i64 noundef %1) #5 comdat align 2 {
  %3 = alloca ptr, align 8
  %4 = alloca i64, align 8
  store ptr %0, ptr %3, align 8, !tbaa !10
  store i64 %1, ptr %4, align 8, !tbaa !63
  %5 = load ptr, ptr %3, align 8
  %6 = getelementptr inbounds nuw %"struct.std::_Vector_base.1", ptr %5, i32 0, i32 0
  %7 = getelementptr inbounds nuw %"struct.std::_Vector_base<long long, std::allocator<long long>>::_Vector_impl_data", ptr %6, i32 0, i32 0
  %8 = load ptr, ptr %7, align 8, !tbaa !34
  %9 = load i64, ptr %4, align 8, !tbaa !63
  %10 = getelementptr inbounds nuw i64, ptr %8, i64 %9
  ret ptr %10
}

; Function Attrs: mustprogress uwtable
define noundef i32 @_ZNK6casadi8Einstein10sp_reverseEPPyS2_PxS1_(ptr noundef nonnull align 8 dereferenceable(312) %0, ptr noundef %1, ptr noundef %2, ptr noundef %3, ptr noundef %4) unnamed_addr #4 align 2 {
  %6 = alloca ptr, align 8
  %7 = alloca ptr, align 8
  %8 = alloca ptr, align 8
  %9 = alloca ptr, align 8
  %10 = alloca ptr, align 8
  %11 = alloca i64, align 8
  %12 = alloca i32, align 4
  %13 = alloca ptr, align 8
  %14 = alloca ptr, align 8
  %15 = alloca ptr, align 8
  %16 = alloca i64, align 8
  %17 = alloca i64, align 8
  %18 = alloca i64, align 8
  %19 = alloca i64, align 8
  %20 = alloca i64, align 8
  store ptr %0, ptr %6, align 8, !tbaa !3
  store ptr %1, ptr %7, align 8, !tbaa !88
  store ptr %2, ptr %8, align 8, !tbaa !88
  store ptr %3, ptr %9, align 8, !tbaa !67
  store ptr %4, ptr %10, align 8, !tbaa !67
  %21 = load ptr, ptr %6, align 8
  call void @llvm.lifetime.start.p0(i64 8, ptr %11) #3
  store i64 0, ptr %11, align 8, !tbaa !36
  br label %22

22:                                               ; preds = %105, %5
  %23 = load i64, ptr %11, align 8, !tbaa !36
  %24 = getelementptr inbounds nuw %"class.casadi::Einstein", ptr %21, i32 0, i32 11
  %25 = load i64, ptr %24, align 8, !tbaa !14
  %26 = icmp slt i64 %23, %25
  br i1 %26, label %28, label %27

27:                                               ; preds = %22
  store i32 2, ptr %12, align 4
  call void @llvm.lifetime.end.p0(i64 8, ptr %11) #3
  br label %108

28:                                               ; preds = %22
  call void @llvm.lifetime.start.p0(i64 8, ptr %13) #3
  %29 = load ptr, ptr %7, align 8, !tbaa !88
  %30 = getelementptr inbounds ptr, ptr %29, i64 1
  %31 = load ptr, ptr %30, align 8, !tbaa !67
  %32 = getelementptr inbounds nuw %"class.casadi::Einstein", ptr %21, i32 0, i32 8
  %33 = call noundef nonnull align 8 dereferenceable(8) ptr @_ZNKSt6vectorIxSaIxEEixEm(ptr noundef nonnull align 8 dereferenceable(24) %32, i64 noundef 0) #3
  %34 = load i64, ptr %33, align 8, !tbaa !36
  %35 = getelementptr inbounds i64, ptr %31, i64 %34
  store ptr %35, ptr %13, align 8, !tbaa !67
  call void @llvm.lifetime.start.p0(i64 8, ptr %14) #3
  %36 = load ptr, ptr %7, align 8, !tbaa !88
  %37 = getelementptr inbounds ptr, ptr %36, i64 2
  %38 = load ptr, ptr %37, align 8, !tbaa !67
  %39 = getelementptr inbounds nuw %"class.casadi::Einstein", ptr %21, i32 0, i32 9
  %40 = call noundef nonnull align 8 dereferenceable(8) ptr @_ZNKSt6vectorIxSaIxEEixEm(ptr noundef nonnull align 8 dereferenceable(24) %39, i64 noundef 0) #3
  %41 = load i64, ptr %40, align 8, !tbaa !36
  %42 = getelementptr inbounds i64, ptr %38, i64 %41
  store ptr %42, ptr %14, align 8, !tbaa !67
  call void @llvm.lifetime.start.p0(i64 8, ptr %15) #3
  %43 = load ptr, ptr %8, align 8, !tbaa !88
  %44 = getelementptr inbounds ptr, ptr %43, i64 0
  %45 = load ptr, ptr %44, align 8, !tbaa !67
  %46 = getelementptr inbounds nuw %"class.casadi::Einstein", ptr %21, i32 0, i32 10
  %47 = call noundef nonnull align 8 dereferenceable(8) ptr @_ZNKSt6vectorIxSaIxEEixEm(ptr noundef nonnull align 8 dereferenceable(24) %46, i64 noundef 0) #3
  %48 = load i64, ptr %47, align 8, !tbaa !36
  %49 = getelementptr inbounds i64, ptr %45, i64 %48
  store ptr %49, ptr %15, align 8, !tbaa !67
  call void @llvm.lifetime.start.p0(i64 8, ptr %16) #3
  %50 = load i64, ptr %11, align 8, !tbaa !36
  store i64 %50, ptr %16, align 8, !tbaa !36
  call void @llvm.lifetime.start.p0(i64 8, ptr %17) #3
  store i64 0, ptr %17, align 8, !tbaa !36
  br label %51

51:                                               ; preds = %97, %28
  %52 = load i64, ptr %17, align 8, !tbaa !36
  %53 = getelementptr inbounds nuw %"class.casadi::Einstein", ptr %21, i32 0, i32 7
  %54 = call noundef i64 @_ZNKSt6vectorIxSaIxEE4sizeEv(ptr noundef nonnull align 8 dereferenceable(24) %53) #3
  %55 = icmp ult i64 %52, %54
  br i1 %55, label %57, label %56

56:                                               ; preds = %51
  store i32 5, ptr %12, align 4
  call void @llvm.lifetime.end.p0(i64 8, ptr %17) #3
  br label %100

57:                                               ; preds = %51
  call void @llvm.lifetime.start.p0(i64 8, ptr %18) #3
  %58 = load i64, ptr %16, align 8, !tbaa !36
  %59 = getelementptr inbounds nuw %"class.casadi::Einstein", ptr %21, i32 0, i32 7
  %60 = load i64, ptr %17, align 8, !tbaa !36
  %61 = call noundef nonnull align 8 dereferenceable(8) ptr @_ZNKSt6vectorIxSaIxEEixEm(ptr noundef nonnull align 8 dereferenceable(24) %59, i64 noundef %60) #3
  %62 = load i64, ptr %61, align 8, !tbaa !36
  %63 = srem i64 %58, %62
  store i64 %63, ptr %18, align 8, !tbaa !36
  %64 = getelementptr inbounds nuw %"class.casadi::Einstein", ptr %21, i32 0, i32 7
  %65 = load i64, ptr %17, align 8, !tbaa !36
  %66 = call noundef nonnull align 8 dereferenceable(8) ptr @_ZNKSt6vectorIxSaIxEEixEm(ptr noundef nonnull align 8 dereferenceable(24) %64, i64 noundef %65) #3
  %67 = load i64, ptr %66, align 8, !tbaa !36
  %68 = load i64, ptr %16, align 8, !tbaa !36
  %69 = sdiv i64 %68, %67
  store i64 %69, ptr %16, align 8, !tbaa !36
  %70 = getelementptr inbounds nuw %"class.casadi::Einstein", ptr %21, i32 0, i32 8
  %71 = load i64, ptr %17, align 8, !tbaa !36
  %72 = add nsw i64 1, %71
  %73 = call noundef nonnull align 8 dereferenceable(8) ptr @_ZNKSt6vectorIxSaIxEEixEm(ptr noundef nonnull align 8 dereferenceable(24) %70, i64 noundef %72) #3
  %74 = load i64, ptr %73, align 8, !tbaa !36
  %75 = load i64, ptr %18, align 8, !tbaa !36
  %76 = mul nsw i64 %74, %75
  %77 = load ptr, ptr %13, align 8, !tbaa !67
  %78 = getelementptr inbounds i64, ptr %77, i64 %76
  store ptr %78, ptr %13, align 8, !tbaa !67
  %79 = getelementptr inbounds nuw %"class.casadi::Einstein", ptr %21, i32 0, i32 9
  %80 = load i64, ptr %17, align 8, !tbaa !36
  %81 = add nsw i64 1, %80
  %82 = call noundef nonnull align 8 dereferenceable(8) ptr @_ZNKSt6vectorIxSaIxEEixEm(ptr noundef nonnull align 8 dereferenceable(24) %79, i64 noundef %81) #3
  %83 = load i64, ptr %82, align 8, !tbaa !36
  %84 = load i64, ptr %18, align 8, !tbaa !36
  %85 = mul nsw i64 %83, %84
  %86 = load ptr, ptr %14, align 8, !tbaa !67
  %87 = getelementptr inbounds i64, ptr %86, i64 %85
  store ptr %87, ptr %14, align 8, !tbaa !67
  %88 = getelementptr inbounds nuw %"class.casadi::Einstein", ptr %21, i32 0, i32 10
  %89 = load i64, ptr %17, align 8, !tbaa !36
  %90 = add nsw i64 1, %89
  %91 = call noundef nonnull align 8 dereferenceable(8) ptr @_ZNKSt6vectorIxSaIxEEixEm(ptr noundef nonnull align 8 dereferenceable(24) %88, i64 noundef %90) #3
  %92 = load i64, ptr %91, align 8, !tbaa !36
  %93 = load i64, ptr %18, align 8, !tbaa !36
  %94 = mul nsw i64 %92, %93
  %95 = load ptr, ptr %15, align 8, !tbaa !67
  %96 = getelementptr inbounds i64, ptr %95, i64 %94
  store ptr %96, ptr %15, align 8, !tbaa !67
  call void @llvm.lifetime.end.p0(i64 8, ptr %18) #3
  br label %97

97:                                               ; preds = %57
  %98 = load i64, ptr %17, align 8, !tbaa !36
  %99 = add nsw i64 %98, 1
  store i64 %99, ptr %17, align 8, !tbaa !36
  br label %51, !llvm.loop !90

100:                                              ; preds = %56
  %101 = load ptr, ptr %15, align 8, !tbaa !67
  call void @llvm.lifetime.start.p0(i64 8, ptr %19) #3
  store i64 0, ptr %19, align 8, !tbaa !36
  %102 = load ptr, ptr %13, align 8, !tbaa !67
  call void @_ZN6casadi11ContractionIyEEvRKT_S3_RS1_(ptr noundef nonnull align 8 dereferenceable(8) %101, ptr noundef nonnull align 8 dereferenceable(8) %19, ptr noundef nonnull align 8 dereferenceable(8) %102)
  call void @llvm.lifetime.end.p0(i64 8, ptr %19) #3
  call void @llvm.lifetime.start.p0(i64 8, ptr %20) #3
  store i64 0, ptr %20, align 8, !tbaa !36
  %103 = load ptr, ptr %15, align 8, !tbaa !67
  %104 = load ptr, ptr %14, align 8, !tbaa !67
  call void @_ZN6casadi11ContractionIyEEvRKT_S3_RS1_(ptr noundef nonnull align 8 dereferenceable(8) %20, ptr noundef nonnull align 8 dereferenceable(8) %103, ptr noundef nonnull align 8 dereferenceable(8) %104)
  call void @llvm.lifetime.end.p0(i64 8, ptr %20) #3
  call void @llvm.lifetime.end.p0(i64 8, ptr %16) #3
  call void @llvm.lifetime.end.p0(i64 8, ptr %15) #3
  call void @llvm.lifetime.end.p0(i64 8, ptr %14) #3
  call void @llvm.lifetime.end.p0(i64 8, ptr %13) #3
  br label %105

105:                                              ; preds = %100
  %106 = load i64, ptr %11, align 8, !tbaa !36
  %107 = add nsw i64 %106, 1
  store i64 %107, ptr %11, align 8, !tbaa !36
  br label %22, !llvm.loop !91

108:                                              ; preds = %27
  %109 = load ptr, ptr %7, align 8, !tbaa !88
  %110 = getelementptr inbounds ptr, ptr %109, i64 0
  %111 = load ptr, ptr %110, align 8, !tbaa !67
  %112 = load ptr, ptr %8, align 8, !tbaa !88
  %113 = getelementptr inbounds ptr, ptr %112, i64 0
  %114 = load ptr, ptr %113, align 8, !tbaa !67
  %115 = call noundef i64 @_ZNK6casadi6MXNode3nnzEx(ptr noundef nonnull align 8 dereferenceable(64) %21, i64 noundef 0)
  call void @_ZN6casadi6MXNode8copy_revEPyS1_x(ptr noundef %111, ptr noundef %114, i64 noundef %115)
  ret i32 0
}