; Function Attrs: mustprogress uwtable
define noundef i32 @_ZNK6casadi8Einstein10sp_reverseEPPyS2_PxS1_(ptr noundef nonnull align 8 dereferenceable(312) %0, ptr noundef readonly captures(none) %1, ptr noundef readonly captures(none) %2, ptr readnone captures(none) %3, ptr readnone captures(none) %4) unnamed_addr #3 align 2 {
  %6 = getelementptr inbounds nuw i8, ptr %0, i64 304
  %7 = load i64, ptr %6, align 8, !tbaa !15
  %8 = icmp sgt i64 %7, 0
  %.pre = load ptr, ptr %2, align 8, !tbaa !14
  br i1 %8, label %.lr.ph42, label %._crit_edge43

.lr.ph42:                                         ; preds = %5
  %9 = getelementptr inbounds nuw i8, ptr %1, i64 8
  %10 = load ptr, ptr %9, align 8, !tbaa !14
  %11 = getelementptr inbounds nuw i8, ptr %0, i64 232
  %12 = load ptr, ptr %11, align 8, !tbaa !11
  %13 = getelementptr inbounds nuw i8, ptr %1, i64 16
  %14 = load ptr, ptr %13, align 8, !tbaa !14
  %15 = getelementptr inbounds nuw i8, ptr %0, i64 256
  %16 = load ptr, ptr %15, align 8, !tbaa !11
  %17 = getelementptr inbounds nuw i8, ptr %0, i64 280
  %18 = load ptr, ptr %17, align 8, !tbaa !11
  %19 = getelementptr inbounds nuw i8, ptr %0, i64 208
  %20 = getelementptr inbounds nuw i8, ptr %0, i64 216
  %21 = load ptr, ptr %20, align 8, !tbaa !6
  %22 = load ptr, ptr %19, align 8, !tbaa !11
  %.not = icmp eq ptr %21, %22
  br i1 %.not, label %.lr.ph42.split, label %.lr.ph.us.preheader

.lr.ph.us.preheader:                              ; preds = %.lr.ph42
  %23 = ptrtoint ptr %21 to i64
  %24 = ptrtoint ptr %22 to i64
  %25 = sub i64 %23, %24
  %26 = ashr exact i64 %25, 3
  %umax = tail call i64 @llvm.umax.i64(i64 %26, i64 1)
  br label %.lr.ph.us

.lr.ph.us:                                        ; preds = %.lr.ph.us.preheader, %._crit_edge.us
  %.040.us = phi i64 [ %57, %._crit_edge.us ], [ 0, %.lr.ph.us.preheader ]
  %27 = load i64, ptr %12, align 8, !tbaa !50
  %28 = getelementptr inbounds i64, ptr %10, i64 %27
  %29 = load i64, ptr %16, align 8, !tbaa !50
  %30 = getelementptr inbounds i64, ptr %14, i64 %29
  %31 = load i64, ptr %18, align 8, !tbaa !50
  %32 = getelementptr inbounds i64, ptr %.pre, i64 %31
  br label %33

33:                                               ; preds = %.lr.ph.us, %33
  %.02737.us = phi i64 [ 0, %.lr.ph.us ], [ %38, %33 ]
  %.02836.us = phi i64 [ %.040.us, %.lr.ph.us ], [ %37, %33 ]
  %.02935.us = phi ptr [ %32, %.lr.ph.us ], [ %50, %33 ]
  %.03034.us = phi ptr [ %30, %.lr.ph.us ], [ %46, %33 ]
  %.03133.us = phi ptr [ %28, %.lr.ph.us ], [ %42, %33 ]
  %34 = getelementptr inbounds nuw i64, ptr %22, i64 %.02737.us
  %35 = load i64, ptr %34, align 8, !tbaa !50
  %36 = srem i64 %.02836.us, %35
  %37 = sdiv i64 %.02836.us, %35
  %38 = add nuw nsw i64 %.02737.us, 1
  %39 = getelementptr inbounds nuw i64, ptr %12, i64 %38
  %40 = load i64, ptr %39, align 8, !tbaa !50
  %41 = mul nsw i64 %40, %36
  %42 = getelementptr inbounds i64, ptr %.03133.us, i64 %41
  %43 = getelementptr inbounds nuw i64, ptr %16, i64 %38
  %44 = load i64, ptr %43, align 8, !tbaa !50
  %45 = mul nsw i64 %44, %36
  %46 = getelementptr inbounds i64, ptr %.03034.us, i64 %45
  %47 = getelementptr inbounds nuw i64, ptr %18, i64 %38
  %48 = load i64, ptr %47, align 8, !tbaa !50
  %49 = mul nsw i64 %48, %36
  %50 = getelementptr inbounds i64, ptr %.02935.us, i64 %49
  %exitcond.not = icmp eq i64 %38, %umax
  br i1 %exitcond.not, label %._crit_edge.us, label %33, !llvm.loop !141

._crit_edge.us:                                   ; preds = %33
  %51 = load i64, ptr %50, align 8, !tbaa !50
  %52 = load i64, ptr %42, align 8, !tbaa !50
  %53 = or i64 %52, %51
  store i64 %53, ptr %42, align 8, !tbaa !50
  %54 = load i64, ptr %50, align 8, !tbaa !50
  %55 = load i64, ptr %46, align 8, !tbaa !50
  %56 = or i64 %55, %54
  store i64 %56, ptr %46, align 8, !tbaa !50
  %57 = add nuw nsw i64 %.040.us, 1
  %58 = load i64, ptr %6, align 8, !tbaa !15
  %59 = icmp slt i64 %57, %58
  br i1 %59, label %.lr.ph.us, label %._crit_edge43, !llvm.loop !142

._crit_edge43:                                    ; preds = %._crit_edge.us, %.lr.ph42.split, %5
  %60 = load ptr, ptr %1, align 8, !tbaa !14
  %61 = load ptr, ptr %0, align 8, !tbaa !3
  %62 = getelementptr inbounds nuw i8, ptr %61, i64 392
  %63 = load ptr, ptr %62, align 8
  %64 = tail call noundef nonnull align 8 dereferenceable(8) ptr %63(ptr noundef nonnull align 8 dereferenceable(64) %0, i64 noundef 0)
  %65 = tail call noundef i64 @_ZNK6casadi8Sparsity3nnzEv(ptr noundef nonnull align 8 dereferenceable(8) %64)
  tail call void @_ZN6casadi6MXNode8copy_revEPyS1_x(ptr noundef %60, ptr noundef %.pre, i64 noundef %65)
  ret i32 0

.lr.ph42.split:                                   ; preds = %.lr.ph42, %.lr.ph42.split
  %.040 = phi i64 [ %78, %.lr.ph42.split ], [ 0, %.lr.ph42 ]
  %66 = load i64, ptr %12, align 8, !tbaa !50
  %67 = getelementptr inbounds i64, ptr %10, i64 %66
  %68 = load i64, ptr %16, align 8, !tbaa !50
  %69 = getelementptr inbounds i64, ptr %14, i64 %68
  %70 = load i64, ptr %18, align 8, !tbaa !50
  %71 = getelementptr inbounds i64, ptr %.pre, i64 %70
  %72 = load i64, ptr %71, align 8, !tbaa !50
  %73 = load i64, ptr %67, align 8, !tbaa !50
  %74 = or i64 %73, %72
  store i64 %74, ptr %67, align 8, !tbaa !50
  %75 = load i64, ptr %71, align 8, !tbaa !50
  %76 = load i64, ptr %69, align 8, !tbaa !50
  %77 = or i64 %76, %75
  store i64 %77, ptr %69, align 8, !tbaa !50
  %78 = add nuw nsw i64 %.040, 1
  %79 = load i64, ptr %6, align 8, !tbaa !15
  %80 = icmp slt i64 %78, %79
  br i1 %80, label %.lr.ph42.split, label %._crit_edge43, !llvm.loop !142
}